; Function Attrs: nounwind uwtable
define internal noundef i32 @IFN_Beginning_Of_Field(ptr noundef captures(none) %0) #0 {
  %2 = getelementptr inbounds nuw i8, ptr %0, i64 72
  %3 = load ptr, ptr %2, align 8, !tbaa !14
  tail call fastcc void @Synchronize_Buffer(ptr noundef %0)
  %4 = getelementptr inbounds nuw i8, ptr %3, i64 104
  %5 = load ptr, ptr %4, align 8, !tbaa !52
  %6 = getelementptr inbounds nuw i8, ptr %3, i64 12
  %7 = load i32, ptr %6, align 4, !tbaa !24
  %8 = getelementptr inbounds nuw i8, ptr %3, i64 16
  %9 = load i32, ptr %8, align 8, !tbaa !26
  %10 = mul nsw i32 %9, %7
  %11 = sext i32 %10 to i64
  %12 = getelementptr inbounds i8, ptr %5, i64 %11
  %13 = icmp sgt i32 %10, 0
  br i1 %13, label %.lr.ph.i, label %Get_Start_Of_Data.exit

.lr.ph.i:                                         ; preds = %1, %16
  %.010.i = phi ptr [ %17, %16 ], [ %5, %1 ]
  %14 = load i8, ptr %.010.i, align 1, !tbaa !54
  %15 = icmp eq i8 %14, 32
  br i1 %15, label %16, label %Get_Start_Of_Data.exit

16:                                               ; preds = %.lr.ph.i
  %17 = getelementptr inbounds nuw i8, ptr %.010.i, i64 1
  %18 = icmp ult ptr %17, %12
  br i1 %18, label %.lr.ph.i, label %Get_Start_Of_Data.exit, !llvm.loop !56

Get_Start_Of_Data.exit:                           ; preds = %.lr.ph.i, %16, %1
  %.0.lcssa.i = phi ptr [ %5, %1 ], [ %.010.i, %.lr.ph.i ], [ %17, %16 ]
  %19 = icmp eq ptr %.0.lcssa.i, %12
  %20 = select i1 %19, ptr %5, ptr %.0.lcssa.i
  %21 = load ptr, ptr %2, align 8, !tbaa !14
  %22 = getelementptr inbounds nuw i8, ptr %21, i64 104
  %23 = load ptr, ptr %22, align 8, !tbaa !52
  %24 = ptrtoint ptr %20 to i64
  %25 = ptrtoint ptr %23 to i64
  %26 = sub i64 %24, %25
  %27 = trunc i64 %26 to i32
  %28 = getelementptr inbounds nuw i8, ptr %21, i64 16
  %29 = load i32, ptr %28, align 8, !tbaa !26
  %30 = sdiv i32 %27, %29
  %31 = getelementptr inbounds nuw i8, ptr %0, i64 8
  store i32 %30, ptr %31, align 8, !tbaa !17
  %32 = getelementptr inbounds nuw i8, ptr %21, i64 4
  %33 = load i16, ptr %32, align 4, !tbaa !27
  %34 = sext i16 %33 to i32
  %35 = mul nsw i32 %30, %34
  %36 = sub nsw i32 %27, %35
  %37 = getelementptr inbounds nuw i8, ptr %0, i64 12
  store i32 %36, ptr %37, align 4, !tbaa !18
  %38 = getelementptr inbounds nuw i8, ptr %21, i64 12
  %39 = load i32, ptr %38, align 4, !tbaa !24
  %40 = icmp slt i32 %39, %30
  br i1 %40, label %41, label %Adjust_Cursor_Position.exit

41:                                               ; preds = %Get_Start_Of_Data.exit
  store i32 0, ptr %31, align 8, !tbaa !17
  br label %Adjust_Cursor_Position.exit

Adjust_Cursor_Position.exit:                      ; preds = %Get_Start_Of_Data.exit, %41
  ret i32 0
}